target datalayout = "e-m:e-p270:32:32-p271:32:32-p272:64:64-i64:64-i128:128-f80:128-n8:16:32:64-S128"
target triple = "x86_64-pc-linux-gnu"

; Function Attrs: inlinehint nounwind uwtable
define internal i32 @Kit_TruthWordNum(i32 noundef %0) #2 {
  %2 = alloca i32, align 4
  store i32 %0, ptr %2, align 4, !tbaa !8
  %3 = load i32, ptr %2, align 4, !tbaa !8
  %4 = icmp sle i32 %3, 5
  br i1 %4, label %5, label %6

5:                                                ; preds = %1
  br label %10

6:                                                ; preds = %1
  %7 = load i32, ptr %2, align 4, !tbaa !8
  %8 = sub nsw i32 %7, 5
  %9 = shl i32 1, %8
  br label %10

10:                                               ; preds = %6, %5
  %11 = phi i32 [ 1, %5 ], [ %9, %6 ]
  ret i32 %11
}

; Function Attrs: nounwind uwtable
define void @Kit_TruthExist(ptr noundef %0, i32 noundef %1, i32 noundef %2) #0 {
  %4 = alloca ptr, align 8
  %5 = alloca i32, align 4
  %6 = alloca i32, align 4
  %7 = alloca i32, align 4
  %8 = alloca i32, align 4
  %9 = alloca i32, align 4
  %10 = alloca i32, align 4
  %11 = alloca i32, align 4
  store ptr %0, ptr %4, align 8, !tbaa !3
  store i32 %1, ptr %5, align 4, !tbaa !8
  store i32 %2, ptr %6, align 4, !tbaa !8
  call void @llvm.lifetime.start.p0(i64 4, ptr %7) #8
  %12 = load i32, ptr %5, align 4, !tbaa !8
  %13 = call i32 @Kit_TruthWordNum(i32 noundef %12)
  store i32 %13, ptr %7, align 4, !tbaa !8
  call void @llvm.lifetime.start.p0(i64 4, ptr %8) #8
  call void @llvm.lifetime.start.p0(i64 4, ptr %9) #8
  call void @llvm.lifetime.start.p0(i64 4, ptr %10) #8
  %14 = load i32, ptr %6, align 4, !tbaa !8
  switch i32 %14, label %170 [
    i32 0, label %15
    i32 1, label %46
    i32 2, label %77
    i32 3, label %108
    i32 4, label %139
  ]

15:                                               ; preds = %3
  store i32 0, ptr %8, align 4, !tbaa !8
  br label %16

16:                                               ; preds = %42, %15
  %17 = load i32, ptr %8, align 4, !tbaa !8
  %18 = load i32, ptr %7, align 4, !tbaa !8
  %19 = icmp slt i32 %17, %18
  br i1 %19, label %20, label %45

20:                                               ; preds = %16
  %21 = load ptr, ptr %4, align 8, !tbaa !3
  %22 = load i32, ptr %8, align 4, !tbaa !8
  %23 = sext i32 %22 to i64
  %24 = getelementptr inbounds i32, ptr %21, i64 %23
  %25 = load i32, ptr %24, align 4, !tbaa !8
  %26 = and i32 %25, -1431655766
  %27 = lshr i32 %26, 1
  %28 = load ptr, ptr %4, align 8, !tbaa !3
  %29 = load i32, ptr %8, align 4, !tbaa !8
  %30 = sext i32 %29 to i64
  %31 = getelementptr inbounds i32, ptr %28, i64 %30
  %32 = load i32, ptr %31, align 4, !tbaa !8
  %33 = and i32 %32, 1431655765
  %34 = shl i32 %33, 1
  %35 = or i32 %27, %34
  %36 = load ptr, ptr %4, align 8, !tbaa !3
  %37 = load i32, ptr %8, align 4, !tbaa !8
  %38 = sext i32 %37 to i64
  %39 = getelementptr inbounds i32, ptr %36, i64 %38
  %40 = load i32, ptr %39, align 4, !tbaa !8
  %41 = or i32 %40, %35
  store i32 %41, ptr %39, align 4, !tbaa !8
  br label %42

42:                                               ; preds = %20
  %43 = load i32, ptr %8, align 4, !tbaa !8
  %44 = add nsw i32 %43, 1
  store i32 %44, ptr %8, align 4, !tbaa !8
  br label %16, !llvm.loop !89

45:                                               ; preds = %16
  store i32 1, ptr %11, align 4
  br label %223

46:                                               ; preds = %3
  store i32 0, ptr %8, align 4, !tbaa !8
  br label %47

47:                                               ; preds = %73, %46
  %48 = load i32, ptr %8, align 4, !tbaa !8
  %49 = load i32, ptr %7, align 4, !tbaa !8
  %50 = icmp slt i32 %48, %49
  br i1 %50, label %51, label %76

51:                                               ; preds = %47
  %52 = load ptr, ptr %4, align 8, !tbaa !3
  %53 = load i32, ptr %8, align 4, !tbaa !8
  %54 = sext i32 %53 to i64
  %55 = getelementptr inbounds i32, ptr %52, i64 %54
  %56 = load i32, ptr %55, align 4, !tbaa !8
  %57 = and i32 %56, -858993460
  %58 = lshr i32 %57, 2
  %59 = load ptr, ptr %4, align 8, !tbaa !3
  %60 = load i32, ptr %8, align 4, !tbaa !8
  %61 = sext i32 %60 to i64
  %62 = getelementptr inbounds i32, ptr %59, i64 %61
  %63 = load i32, ptr %62, align 4, !tbaa !8
  %64 = and i32 %63, 858993459
  %65 = shl i32 %64, 2
  %66 = or i32 %58, %65
  %67 = load ptr, ptr %4, align 8, !tbaa !3
  %68 = load i32, ptr %8, align 4, !tbaa !8
  %69 = sext i32 %68 to i64
  %70 = getelementptr inbounds i32, ptr %67, i64 %69
  %71 = load i32, ptr %70, align 4, !tbaa !8
  %72 = or i32 %71, %66
  store i32 %72, ptr %70, align 4, !tbaa !8
  br label %73

73:                                               ; preds = %51
  %74 = load i32, ptr %8, align 4, !tbaa !8
  %75 = add nsw i32 %74, 1
  store i32 %75, ptr %8, align 4, !tbaa !8
  br label %47, !llvm.loop !90

76:                                               ; preds = %47
  store i32 1, ptr %11, align 4
  br label %223

77:                                               ; preds = %3
  store i32 0, ptr %8, align 4, !tbaa !8
  br label %78

78:                                               ; preds = %104, %77
  %79 = load i32, ptr %8, align 4, !tbaa !8
  %80 = load i32, ptr %7, align 4, !tbaa !8
  %81 = icmp slt i32 %79, %80
  br i1 %81, label %82, label %107

82:                                               ; preds = %78
  %83 = load ptr, ptr %4, align 8, !tbaa !3
  %84 = load i32, ptr %8, align 4, !tbaa !8
  %85 = sext i32 %84 to i64
  %86 = getelementptr inbounds i32, ptr %83, i64 %85
  %87 = load i32, ptr %86, align 4, !tbaa !8
  %88 = and i32 %87, -252645136
  %89 = lshr i32 %88, 4
  %90 = load ptr, ptr %4, align 8, !tbaa !3
  %91 = load i32, ptr %8, align 4, !tbaa !8
  %92 = sext i32 %91 to i64
  %93 = getelementptr inbounds i32, ptr %90, i64 %92
  %94 = load i32, ptr %93, align 4, !tbaa !8
  %95 = and i32 %94, 252645135
  %96 = shl i32 %95, 4
  %97 = or i32 %89, %96
  %98 = load ptr, ptr %4, align 8, !tbaa !3
  %99 = load i32, ptr %8, align 4, !tbaa !8
  %100 = sext i32 %99 to i64
  %101 = getelementptr inbounds i32, ptr %98, i64 %100
  %102 = load i32, ptr %101, align 4, !tbaa !8
  %103 = or i32 %102, %97
  store i32 %103, ptr %101, align 4, !tbaa !8
  br label %104

104:                                              ; preds = %82
  %105 = load i32, ptr %8, align 4, !tbaa !8
  %106 = add nsw i32 %105, 1
  store i32 %106, ptr %8, align 4, !tbaa !8
  br label %78, !llvm.loop !91

107:                                              ; preds = %78
  store i32 1, ptr %11, align 4
  br label %223

108:                                              ; preds = %3
  store i32 0, ptr %8, align 4, !tbaa !8
  br label %109

109:                                              ; preds = %135, %108
  %110 = load i32, ptr %8, align 4, !tbaa !8
  %111 = load i32, ptr %7, align 4, !tbaa !8
  %112 = icmp slt i32 %110, %111
  br i1 %112, label %113, label %138

113:                                              ; preds = %109
  %114 = load ptr, ptr %4, align 8, !tbaa !3
  %115 = load i32, ptr %8, align 4, !tbaa !8
  %116 = sext i32 %115 to i64
  %117 = getelementptr inbounds i32, ptr %114, i64 %116
  %118 = load i32, ptr %117, align 4, !tbaa !8
  %119 = and i32 %118, -16711936
  %120 = lshr i32 %119, 8
  %121 = load ptr, ptr %4, align 8, !tbaa !3
  %122 = load i32, ptr %8, align 4, !tbaa !8
  %123 = sext i32 %122 to i64
  %124 = getelementptr inbounds i32, ptr %121, i64 %123
  %125 = load i32, ptr %124, align 4, !tbaa !8
  %126 = and i32 %125, 16711935
  %127 = shl i32 %126, 8
  %128 = or i32 %120, %127
  %129 = load ptr, ptr %4, align 8, !tbaa !3
  %130 = load i32, ptr %8, align 4, !tbaa !8
  %131 = sext i32 %130 to i64
  %132 = getelementptr inbounds i32, ptr %129, i64 %131
  %133 = load i32, ptr %132, align 4, !tbaa !8
  %134 = or i32 %133, %128
  store i32 %134, ptr %132, align 4, !tbaa !8
  br label %135

135:                                              ; preds = %113
  %136 = load i32, ptr %8, align 4, !tbaa !8
  %137 = add nsw i32 %136, 1
  store i32 %137, ptr %8, align 4, !tbaa !8
  br label %109, !llvm.loop !92

138:                                              ; preds = %109
  store i32 1, ptr %11, align 4
  br label %223

139:                                              ; preds = %3
  store i32 0, ptr %8, align 4, !tbaa !8
  br label %140

140:                                              ; preds = %166, %139
  %141 = load i32, ptr %8, align 4, !tbaa !8
  %142 = load i32, ptr %7, align 4, !tbaa !8
  %143 = icmp slt i32 %141, %142
  br i1 %143, label %144, label %169

144:                                              ; preds = %140
  %145 = load ptr, ptr %4, align 8, !tbaa !3
  %146 = load i32, ptr %8, align 4, !tbaa !8
  %147 = sext i32 %146 to i64
  %148 = getelementptr inbounds i32, ptr %145, i64 %147
  %149 = load i32, ptr %148, align 4, !tbaa !8
  %150 = and i32 %149, -65536
  %151 = lshr i32 %150, 16
  %152 = load ptr, ptr %4, align 8, !tbaa !3
  %153 = load i32, ptr %8, align 4, !tbaa !8
  %154 = sext i32 %153 to i64
  %155 = getelementptr inbounds i32, ptr %152, i64 %154
  %156 = load i32, ptr %155, align 4, !tbaa !8
  %157 = and i32 %156, 65535
  %158 = shl i32 %157, 16
  %159 = or i32 %151, %158
  %160 = load ptr, ptr %4, align 8, !tbaa !3
  %161 = load i32, ptr %8, align 4, !tbaa !8
  %162 = sext i32 %161 to i64
  %163 = getelementptr inbounds i32, ptr %160, i64 %162
  %164 = load i32, ptr %163, align 4, !tbaa !8
  %165 = or i32 %164, %159
  store i32 %165, ptr %163, align 4, !tbaa !8
  br label %166

166:                                              ; preds = %144
  %167 = load i32, ptr %8, align 4, !tbaa !8
  %168 = add nsw i32 %167, 1
  store i32 %168, ptr %8, align 4, !tbaa !8
  br label %140, !llvm.loop !93

169:                                              ; preds = %140
  store i32 1, ptr %11, align 4
  br label %223

170:                                              ; preds = %3
  %171 = load i32, ptr %6, align 4, !tbaa !8
  %172 = sub nsw i32 %171, 5
  %173 = shl i32 1, %172
  store i32 %173, ptr %10, align 4, !tbaa !8
  store i32 0, ptr %9, align 4, !tbaa !8
  br label %174

174:                                              ; preds = %217, %170
  %175 = load i32, ptr %9, align 4, !tbaa !8
  %176 = load i32, ptr %7, align 4, !tbaa !8
  %177 = icmp slt i32 %175, %176
  br i1 %177, label %178, label %222

178:                                              ; preds = %174
  store i32 0, ptr %8, align 4, !tbaa !8
  br label %179

179:                                              ; preds = %208, %178
  %180 = load i32, ptr %8, align 4, !tbaa !8
  %181 = load i32, ptr %10, align 4, !tbaa !8
  %182 = icmp slt i32 %180, %181
  br i1 %182, label %183, label %211

183:                                              ; preds = %179
  %184 = load ptr, ptr %4, align 8, !tbaa !3
  %185 = load i32, ptr %10, align 4, !tbaa !8
  %186 = load i32, ptr %8, align 4, !tbaa !8
  %187 = add nsw i32 %185, %186
  %188 = sext i32 %187 to i64
  %189 = getelementptr inbounds i32, ptr %184, i64 %188
  %190 = load i32, ptr %189, align 4, !tbaa !8
  %191 = load ptr, ptr %4, align 8, !tbaa !3
  %192 = load i32, ptr %8, align 4, !tbaa !8
  %193 = sext i32 %192 to i64
  %194 = getelementptr inbounds i32, ptr %191, i64 %193
  %195 = load i32, ptr %194, align 4, !tbaa !8
  %196 = or i32 %195, %190
  store i32 %196, ptr %194, align 4, !tbaa !8
  %197 = load ptr, ptr %4, align 8, !tbaa !3
  %198 = load i32, ptr %8, align 4, !tbaa !8
  %199 = sext i32 %198 to i64
  %200 = getelementptr inbounds i32, ptr %197, i64 %199
  %201 = load i32, ptr %200, align 4, !tbaa !8
  %202 = load ptr, ptr %4, align 8, !tbaa !3
  %203 = load i32, ptr %10, align 4, !tbaa !8
  %204 = load i32, ptr %8, align 4, !tbaa !8
  %205 = add nsw i32 %203, %204
  %206 = sext i32 %205 to i64
  %207 = getelementptr inbounds i32, ptr %202, i64 %206
  store i32 %201, ptr %207, align 4, !tbaa !8
  br label %208

208:                                              ; preds = %183
  %209 = load i32, ptr %8, align 4, !tbaa !8
  %210 = add nsw i32 %209, 1
  store i32 %210, ptr %8, align 4, !tbaa !8
  br label %179, !llvm.loop !94

211:                                              ; preds = %179
  %212 = load i32, ptr %10, align 4, !tbaa !8
  %213 = mul nsw i32 2, %212
  %214 = load ptr, ptr %4, align 8, !tbaa !3
  %215 = sext i32 %213 to i64
  %216 = getelementptr inbounds i32, ptr %214, i64 %215
  store ptr %216, ptr %4, align 8, !tbaa !3
  br label %217

217:                                              ; preds = %211
  %218 = load i32, ptr %10, align 4, !tbaa !8
  %219 = mul nsw i32 2, %218
  %220 = load i32, ptr %9, align 4, !tbaa !8
  %221 = add nsw i32 %220, %219
  store i32 %221, ptr %9, align 4, !tbaa !8
  br label %174, !llvm.loop !95

222:                                              ; preds = %174
  store i32 1, ptr %11, align 4
  br label %223

223:                                              ; preds = %222, %169, %138, %107, %76, %45
  call void @llvm.lifetime.end.p0(i64 4, ptr %10) #8
  call void @llvm.lifetime.end.p0(i64 4, ptr %9) #8
  call void @llvm.lifetime.end.p0(i64 4, ptr %8) #8
  call void @llvm.lifetime.end.p0(i64 4, ptr %7) #8
  ret void
}