; Function Attrs: nofree norecurse nosync nounwind memory(argmem: readwrite) uwtable
define void @Kit_TruthExist(ptr noundef captures(none) %0, i32 noundef %1, i32 noundef %2) local_unnamed_addr #0 {
  %4 = icmp slt i32 %1, 6
  %5 = add nsw i32 %1, -5
  %6 = shl nuw i32 1, %5
  %7 = select i1 %4, i32 1, i32 %6
  switch i32 %2, label %49 [
    i32 0, label %.preheader70
    i32 1, label %.preheader72
    i32 2, label %.preheader74
    i32 3, label %.preheader76
    i32 4, label %.preheader78
  ]

.preheader78:                                     ; preds = %3
  %8 = icmp sgt i32 %7, 0
  br i1 %8, label %.lr.ph.preheader, label %.loopexit

.lr.ph.preheader:                                 ; preds = %.preheader78
  %wide.trip.count = zext nneg i32 %7 to i64
  br label %.lr.ph

.preheader76:                                     ; preds = %3
  %9 = icmp sgt i32 %7, 0
  br i1 %9, label %.lr.ph82.preheader, label %.loopexit

.lr.ph82.preheader:                               ; preds = %.preheader76
  %wide.trip.count103 = zext nneg i32 %7 to i64
  br label %.lr.ph82

.preheader74:                                     ; preds = %3
  %10 = icmp sgt i32 %7, 0
  br i1 %10, label %.lr.ph84.preheader, label %.loopexit

.lr.ph84.preheader:                               ; preds = %.preheader74
  %wide.trip.count108 = zext nneg i32 %7 to i64
  br label %.lr.ph84

.preheader72:                                     ; preds = %3
  %11 = icmp sgt i32 %7, 0
  br i1 %11, label %.lr.ph86.preheader, label %.loopexit

.lr.ph86.preheader:                               ; preds = %.preheader72
  %wide.trip.count113 = zext nneg i32 %7 to i64
  br label %.lr.ph86

.preheader70:                                     ; preds = %3
  %12 = icmp sgt i32 %7, 0
  br i1 %12, label %.lr.ph88.preheader, label %.loopexit

.lr.ph88.preheader:                               ; preds = %.preheader70
  %wide.trip.count118 = zext nneg i32 %7 to i64
  br label %.lr.ph88

.lr.ph88:                                         ; preds = %.lr.ph88.preheader, %.lr.ph88
  %indvars.iv115 = phi i64 [ 0, %.lr.ph88.preheader ], [ %indvars.iv.next116, %.lr.ph88 ]
  %13 = getelementptr inbounds nuw i32, ptr %0, i64 %indvars.iv115
  %14 = load i32, ptr %13, align 4, !tbaa !3
  %15 = lshr i32 %14, 1
  %16 = and i32 %15, 1431655765
  %17 = shl i32 %14, 1
  %18 = and i32 %17, -1431655766
  %19 = or disjoint i32 %18, %16
  %20 = or i32 %19, %14
  store i32 %20, ptr %13, align 4, !tbaa !3
  %indvars.iv.next116 = add nuw nsw i64 %indvars.iv115, 1
  %exitcond119.not = icmp eq i64 %indvars.iv.next116, %wide.trip.count118
  br i1 %exitcond119.not, label %.loopexit, label %.lr.ph88, !llvm.loop !83

.lr.ph86:                                         ; preds = %.lr.ph86.preheader, %.lr.ph86
  %indvars.iv110 = phi i64 [ 0, %.lr.ph86.preheader ], [ %indvars.iv.next111, %.lr.ph86 ]
  %21 = getelementptr inbounds nuw i32, ptr %0, i64 %indvars.iv110
  %22 = load i32, ptr %21, align 4, !tbaa !3
  %23 = lshr i32 %22, 2
  %24 = and i32 %23, 858993459
  %25 = shl i32 %22, 2
  %26 = and i32 %25, -858993460
  %27 = or disjoint i32 %26, %24
  %28 = or i32 %27, %22
  store i32 %28, ptr %21, align 4, !tbaa !3
  %indvars.iv.next111 = add nuw nsw i64 %indvars.iv110, 1
  %exitcond114.not = icmp eq i64 %indvars.iv.next111, %wide.trip.count113
  br i1 %exitcond114.not, label %.loopexit, label %.lr.ph86, !llvm.loop !84

.lr.ph84:                                         ; preds = %.lr.ph84.preheader, %.lr.ph84
  %indvars.iv105 = phi i64 [ 0, %.lr.ph84.preheader ], [ %indvars.iv.next106, %.lr.ph84 ]
  %29 = getelementptr inbounds nuw i32, ptr %0, i64 %indvars.iv105
  %30 = load i32, ptr %29, align 4, !tbaa !3
  %31 = lshr i32 %30, 4
  %32 = and i32 %31, 252645135
  %33 = shl i32 %30, 4
  %34 = and i32 %33, -252645136
  %35 = or disjoint i32 %34, %32
  %36 = or i32 %35, %30
  store i32 %36, ptr %29, align 4, !tbaa !3
  %indvars.iv.next106 = add nuw nsw i64 %indvars.iv105, 1
  %exitcond109.not = icmp eq i64 %indvars.iv.next106, %wide.trip.count108
  br i1 %exitcond109.not, label %.loopexit, label %.lr.ph84, !llvm.loop !85

.lr.ph82:                                         ; preds = %.lr.ph82.preheader, %.lr.ph82
  %indvars.iv100 = phi i64 [ 0, %.lr.ph82.preheader ], [ %indvars.iv.next101, %.lr.ph82 ]
  %37 = getelementptr inbounds nuw i32, ptr %0, i64 %indvars.iv100
  %38 = load i32, ptr %37, align 4, !tbaa !3
  %39 = lshr i32 %38, 8
  %40 = and i32 %39, 16711935
  %41 = shl i32 %38, 8
  %42 = and i32 %41, -16711936
  %43 = or disjoint i32 %42, %40
  %44 = or i32 %43, %38
  store i32 %44, ptr %37, align 4, !tbaa !3
  %indvars.iv.next101 = add nuw nsw i64 %indvars.iv100, 1
  %exitcond104.not = icmp eq i64 %indvars.iv.next101, %wide.trip.count103
  br i1 %exitcond104.not, label %.loopexit, label %.lr.ph82, !llvm.loop !86

.lr.ph:                                           ; preds = %.lr.ph.preheader, %.lr.ph
  %indvars.iv = phi i64 [ 0, %.lr.ph.preheader ], [ %indvars.iv.next, %.lr.ph ]
  %45 = getelementptr inbounds nuw i32, ptr %0, i64 %indvars.iv
  %46 = load i32, ptr %45, align 4, !tbaa !3
  %47 = tail call i32 @llvm.fshl.i32(i32 %46, i32 %46, i32 16)
  %48 = or i32 %47, %46
  store i32 %48, ptr %45, align 4, !tbaa !3
  %indvars.iv.next = add nuw nsw i64 %indvars.iv, 1
  %exitcond.not = icmp eq i64 %indvars.iv.next, %wide.trip.count
  br i1 %exitcond.not, label %.loopexit, label %.lr.ph, !llvm.loop !87

49:                                               ; preds = %3
  %50 = add nsw i32 %2, -5
  %51 = shl nuw i32 1, %50
  %52 = icmp sgt i32 %7, 0
  br i1 %52, label %.preheader.lr.ph, label %.loopexit

.preheader.lr.ph:                                 ; preds = %49
  %.not = icmp eq i32 %50, 31
  %53 = shl i32 2, %50
  %54 = sext i32 %53 to i64
  br i1 %.not, label %.loopexit, label %.preheader.us.preheader

.preheader.us.preheader:                          ; preds = %.preheader.lr.ph
  %55 = sext i32 %51 to i64
  %smax = tail call i32 @llvm.smax.i32(i32 %51, i32 1)
  %wide.trip.count123 = zext nneg i32 %smax to i64
  br label %.preheader.us

.preheader.us:                                    ; preds = %.preheader.us.preheader, %._crit_edge.us
  %.092.us = phi ptr [ %61, %._crit_edge.us ], [ %0, %.preheader.us.preheader ]
  %.06691.us = phi i32 [ %62, %._crit_edge.us ], [ 0, %.preheader.us.preheader ]
  %invariant.gep = getelementptr i32, ptr %.092.us, i64 %55
  br label %56

56:                                               ; preds = %.preheader.us, %56
  %indvars.iv120 = phi i64 [ 0, %.preheader.us ], [ %indvars.iv.next121, %56 ]
  %gep = getelementptr i32, ptr %invariant.gep, i64 %indvars.iv120
  %57 = load i32, ptr %gep, align 4, !tbaa !3
  %58 = getelementptr inbounds nuw i32, ptr %.092.us, i64 %indvars.iv120
  %59 = load i32, ptr %58, align 4, !tbaa !3
  %60 = or i32 %59, %57
  store i32 %60, ptr %58, align 4, !tbaa !3
  store i32 %60, ptr %gep, align 4, !tbaa !3
  %indvars.iv.next121 = add nuw nsw i64 %indvars.iv120, 1
  %exitcond124.not = icmp eq i64 %indvars.iv.next121, %wide.trip.count123
  br i1 %exitcond124.not, label %._crit_edge.us, label %56, !llvm.loop !88

._crit_edge.us:                                   ; preds = %56
  %61 = getelementptr inbounds i32, ptr %.092.us, i64 %54
  %62 = add nsw i32 %.06691.us, %53
  %63 = icmp slt i32 %62, %7
  br i1 %63, label %.preheader.us, label %.loopexit, !llvm.loop !89

.loopexit:                                        ; preds = %.lr.ph, %.lr.ph82, %.lr.ph84, %.lr.ph86, %.lr.ph88, %._crit_edge.us, %.preheader.lr.ph, %.preheader78, %.preheader76, %.preheader74, %.preheader72, %.preheader70, %49
  ret void
}